; Function Attrs: mustprogress nofree norecurse nosync nounwind willreturn memory(read, inaccessiblemem: none) uwtable
define dso_local range(i64 0, 2) i64 @timetz_ne(ptr noundef readonly captures(none) %0) local_unnamed_addr #10 {
timetz_cmp_internal.exit:
  %1 = getelementptr inbounds nuw i8, ptr %0, i64 32
  %2 = load i64, ptr %1, align 8
  %3 = inttoptr i64 %2 to ptr
  %4 = getelementptr inbounds nuw i8, ptr %0, i64 48
  %5 = load i64, ptr %4, align 8
  %6 = inttoptr i64 %5 to ptr
  %.val = load i64, ptr %3, align 8
  %7 = getelementptr i8, ptr %3, i64 8
  %.val4 = load i32, ptr %7, align 8
  %.val5 = load i64, ptr %6, align 8
  %8 = getelementptr i8, ptr %6, i64 8
  %.val6 = load i32, ptr %8, align 8
  %9 = sext i32 %.val4 to i64
  %10 = mul nsw i64 %9, 1000000
  %11 = add i64 %10, %.val
  %12 = sext i32 %.val6 to i64
  %13 = mul nsw i64 %12, 1000000
  %14 = add i64 %13, %.val5
  %or.cond = icmp ne i64 %11, %14
  %15 = icmp ne i32 %.val4, %.val6
  %narrow = or i1 %15, %or.cond
  %.0.i = zext i1 %narrow to i64
  ret i64 %.0.i
}